target datalayout = "e-m:e-p270:32:32-p271:32:32-p272:64:64-i64:64-i128:128-f80:128-n8:16:32:64-S128"
target triple = "x86_64-pc-linux-gnu"

%struct.Vec_Int_t_ = type { i32, i32, ptr }
%struct.Vec_Wec_t_ = type { i32, i32, ptr }

; Function Attrs: inlinehint nounwind uwtable
define internal void @Vec_IntGrow(ptr noundef %0, i32 noundef %1) #2 {
  %3 = alloca ptr, align 8
  %4 = alloca i32, align 4
  store ptr %0, ptr %3, align 8, !tbaa !8
  store i32 %1, ptr %4, align 4, !tbaa !10
  %5 = load ptr, ptr %3, align 8, !tbaa !8
  %6 = getelementptr inbounds nuw %struct.Vec_Int_t_, ptr %5, i32 0, i32 0
  %7 = load i32, ptr %6, align 8, !tbaa !36
  %8 = load i32, ptr %4, align 4, !tbaa !10
  %9 = icmp sge i32 %7, %8
  br i1 %9, label %10, label %11

10:                                               ; preds = %2
  br label %36

11:                                               ; preds = %2
  %12 = load ptr, ptr %3, align 8, !tbaa !8
  %13 = getelementptr inbounds nuw %struct.Vec_Int_t_, ptr %12, i32 0, i32 2
  %14 = load ptr, ptr %13, align 8, !tbaa !37
  %15 = icmp ne ptr %14, null
  br i1 %15, label %16, label %24

16:                                               ; preds = %11
  %17 = load ptr, ptr %3, align 8, !tbaa !8
  %18 = getelementptr inbounds nuw %struct.Vec_Int_t_, ptr %17, i32 0, i32 2
  %19 = load ptr, ptr %18, align 8, !tbaa !37
  %20 = load i32, ptr %4, align 4, !tbaa !10
  %21 = sext i32 %20 to i64
  %22 = mul i64 4, %21
  %23 = call ptr @realloc(ptr noundef %19, i64 noundef %22) #15
  br label %29

24:                                               ; preds = %11
  %25 = load i32, ptr %4, align 4, !tbaa !10
  %26 = sext i32 %25 to i64
  %27 = mul i64 4, %26
  %28 = call noalias ptr @malloc(i64 noundef %27) #13
  br label %29

29:                                               ; preds = %24, %16
  %30 = phi ptr [ %23, %16 ], [ %28, %24 ]
  %31 = load ptr, ptr %3, align 8, !tbaa !8
  %32 = getelementptr inbounds nuw %struct.Vec_Int_t_, ptr %31, i32 0, i32 2
  store ptr %30, ptr %32, align 8, !tbaa !37
  %33 = load i32, ptr %4, align 4, !tbaa !10
  %34 = load ptr, ptr %3, align 8, !tbaa !8
  %35 = getelementptr inbounds nuw %struct.Vec_Int_t_, ptr %34, i32 0, i32 0
  store i32 %33, ptr %35, align 8, !tbaa !36
  br label %36

36:                                               ; preds = %29, %10
  ret void
}

; Function Attrs: inlinehint nounwind uwtable
define internal void @Vec_IntPush(ptr noundef %0, i32 noundef %1) #2 {
  %3 = alloca ptr, align 8
  %4 = alloca i32, align 4
  store ptr %0, ptr %3, align 8, !tbaa !8
  store i32 %1, ptr %4, align 4, !tbaa !10
  %5 = load ptr, ptr %3, align 8, !tbaa !8
  %6 = getelementptr inbounds nuw %struct.Vec_Int_t_, ptr %5, i32 0, i32 1
  %7 = load i32, ptr %6, align 4, !tbaa !35
  %8 = load ptr, ptr %3, align 8, !tbaa !8
  %9 = getelementptr inbounds nuw %struct.Vec_Int_t_, ptr %8, i32 0, i32 0
  %10 = load i32, ptr %9, align 8, !tbaa !36
  %11 = icmp eq i32 %7, %10
  br i1 %11, label %12, label %26

12:                                               ; preds = %2
  %13 = load ptr, ptr %3, align 8, !tbaa !8
  %14 = getelementptr inbounds nuw %struct.Vec_Int_t_, ptr %13, i32 0, i32 0
  %15 = load i32, ptr %14, align 8, !tbaa !36
  %16 = icmp slt i32 %15, 16
  br i1 %16, label %17, label %19

17:                                               ; preds = %12
  %18 = load ptr, ptr %3, align 8, !tbaa !8
  call void @Vec_IntGrow(ptr noundef %18, i32 noundef 16)
  br label %25

19:                                               ; preds = %12
  %20 = load ptr, ptr %3, align 8, !tbaa !8
  %21 = load ptr, ptr %3, align 8, !tbaa !8
  %22 = getelementptr inbounds nuw %struct.Vec_Int_t_, ptr %21, i32 0, i32 0
  %23 = load i32, ptr %22, align 8, !tbaa !36
  %24 = mul nsw i32 2, %23
  call void @Vec_IntGrow(ptr noundef %20, i32 noundef %24)
  br label %25

25:                                               ; preds = %19, %17
  br label %26

26:                                               ; preds = %25, %2
  %27 = load i32, ptr %4, align 4, !tbaa !10
  %28 = load ptr, ptr %3, align 8, !tbaa !8
  %29 = getelementptr inbounds nuw %struct.Vec_Int_t_, ptr %28, i32 0, i32 2
  %30 = load ptr, ptr %29, align 8, !tbaa !37
  %31 = load ptr, ptr %3, align 8, !tbaa !8
  %32 = getelementptr inbounds nuw %struct.Vec_Int_t_, ptr %31, i32 0, i32 1
  %33 = load i32, ptr %32, align 4, !tbaa !35
  %34 = add nsw i32 %33, 1
  store i32 %34, ptr %32, align 4, !tbaa !35
  %35 = sext i32 %33 to i64
  %36 = getelementptr inbounds i32, ptr %30, i64 %35
  store i32 %27, ptr %36, align 4, !tbaa !10
  ret void
}

; Function Attrs: inlinehint nounwind uwtable
define internal ptr @Vec_WecEntry(ptr noundef %0, i32 noundef %1) #2 {
  %3 = alloca ptr, align 8
  %4 = alloca i32, align 4
  store ptr %0, ptr %3, align 8, !tbaa !42
  store i32 %1, ptr %4, align 4, !tbaa !10
  %5 = load ptr, ptr %3, align 8, !tbaa !42
  %6 = getelementptr inbounds nuw %struct.Vec_Wec_t_, ptr %5, i32 0, i32 2
  %7 = load ptr, ptr %6, align 8, !tbaa !112
  %8 = load i32, ptr %4, align 4, !tbaa !10
  %9 = sext i32 %8 to i64
  %10 = getelementptr inbounds %struct.Vec_Int_t_, ptr %7, i64 %9
  ret ptr %10
}

; Function Attrs: inlinehint nounwind uwtable
define internal void @Vec_WecGrow(ptr noundef %0, i32 noundef %1) #2 {
  %3 = alloca ptr, align 8
  %4 = alloca i32, align 4
  store ptr %0, ptr %3, align 8, !tbaa !42
  store i32 %1, ptr %4, align 4, !tbaa !10
  %5 = load ptr, ptr %3, align 8, !tbaa !42
  %6 = getelementptr inbounds nuw %struct.Vec_Wec_t_, ptr %5, i32 0, i32 0
  %7 = load i32, ptr %6, align 8, !tbaa !127
  %8 = load i32, ptr %4, align 4, !tbaa !10
  %9 = icmp sge i32 %7, %8
  br i1 %9, label %10, label %11

10:                                               ; preds = %2
  br label %51

11:                                               ; preds = %2
  %12 = load ptr, ptr %3, align 8, !tbaa !42
  %13 = getelementptr inbounds nuw %struct.Vec_Wec_t_, ptr %12, i32 0, i32 2
  %14 = load ptr, ptr %13, align 8, !tbaa !112
  %15 = icmp ne ptr %14, null
  br i1 %15, label %16, label %24

16:                                               ; preds = %11
  %17 = load ptr, ptr %3, align 8, !tbaa !42
  %18 = getelementptr inbounds nuw %struct.Vec_Wec_t_, ptr %17, i32 0, i32 2
  %19 = load ptr, ptr %18, align 8, !tbaa !112
  %20 = load i32, ptr %4, align 4, !tbaa !10
  %21 = sext i32 %20 to i64
  %22 = mul i64 16, %21
  %23 = call ptr @realloc(ptr noundef %19, i64 noundef %22) #15
  br label %29

24:                                               ; preds = %11
  %25 = load i32, ptr %4, align 4, !tbaa !10
  %26 = sext i32 %25 to i64
  %27 = mul i64 16, %26
  %28 = call noalias ptr @malloc(i64 noundef %27) #13
  br label %29

29:                                               ; preds = %24, %16
  %30 = phi ptr [ %23, %16 ], [ %28, %24 ]
  %31 = load ptr, ptr %3, align 8, !tbaa !42
  %32 = getelementptr inbounds nuw %struct.Vec_Wec_t_, ptr %31, i32 0, i32 2
  store ptr %30, ptr %32, align 8, !tbaa !112
  %33 = load ptr, ptr %3, align 8, !tbaa !42
  %34 = getelementptr inbounds nuw %struct.Vec_Wec_t_, ptr %33, i32 0, i32 2
  %35 = load ptr, ptr %34, align 8, !tbaa !112
  %36 = load ptr, ptr %3, align 8, !tbaa !42
  %37 = getelementptr inbounds nuw %struct.Vec_Wec_t_, ptr %36, i32 0, i32 0
  %38 = load i32, ptr %37, align 8, !tbaa !127
  %39 = sext i32 %38 to i64
  %40 = getelementptr inbounds %struct.Vec_Int_t_, ptr %35, i64 %39
  %41 = load i32, ptr %4, align 4, !tbaa !10
  %42 = load ptr, ptr %3, align 8, !tbaa !42
  %43 = getelementptr inbounds nuw %struct.Vec_Wec_t_, ptr %42, i32 0, i32 0
  %44 = load i32, ptr %43, align 8, !tbaa !127
  %45 = sub nsw i32 %41, %44
  %46 = sext i32 %45 to i64
  %47 = mul i64 16, %46
  call void @llvm.memset.p0.i64(ptr align 8 %40, i8 0, i64 %47, i1 false)
  %48 = load i32, ptr %4, align 4, !tbaa !10
  %49 = load ptr, ptr %3, align 8, !tbaa !42
  %50 = getelementptr inbounds nuw %struct.Vec_Wec_t_, ptr %49, i32 0, i32 0
  store i32 %48, ptr %50, align 8, !tbaa !127
  br label %51

51:                                               ; preds = %29, %10
  ret void
}

; Function Attrs: inlinehint nounwind uwtable
define internal i32 @Abc_MaxInt(i32 noundef %0, i32 noundef %1) #2 {
  %3 = alloca i32, align 4
  %4 = alloca i32, align 4
  store i32 %0, ptr %3, align 4, !tbaa !10
  store i32 %1, ptr %4, align 4, !tbaa !10
  %5 = load i32, ptr %3, align 4, !tbaa !10
  %6 = load i32, ptr %4, align 4, !tbaa !10
  %7 = icmp sgt i32 %5, %6
  br i1 %7, label %8, label %10

8:                                                ; preds = %2
  %9 = load i32, ptr %3, align 4, !tbaa !10
  br label %12

10:                                               ; preds = %2
  %11 = load i32, ptr %4, align 4, !tbaa !10
  br label %12

12:                                               ; preds = %10, %8
  %13 = phi i32 [ %9, %8 ], [ %11, %10 ]
  ret i32 %13
}

; Function Attrs: inlinehint nounwind uwtable
define internal void @Vec_WecPush(ptr noundef %0, i32 noundef %1, i32 noundef %2) #2 {
  %4 = alloca ptr, align 8
  %5 = alloca i32, align 4
  %6 = alloca i32, align 4
  store ptr %0, ptr %4, align 8, !tbaa !42
  store i32 %1, ptr %5, align 4, !tbaa !10
  store i32 %2, ptr %6, align 4, !tbaa !10
  %7 = load ptr, ptr %4, align 8, !tbaa !42
  %8 = getelementptr inbounds nuw %struct.Vec_Wec_t_, ptr %7, i32 0, i32 1
  %9 = load i32, ptr %8, align 4, !tbaa !44
  %10 = load i32, ptr %5, align 4, !tbaa !10
  %11 = add nsw i32 %10, 1
  %12 = icmp slt i32 %9, %11
  br i1 %12, label %13, label %26

13:                                               ; preds = %3
  %14 = load ptr, ptr %4, align 8, !tbaa !42
  %15 = load ptr, ptr %4, align 8, !tbaa !42
  %16 = getelementptr inbounds nuw %struct.Vec_Wec_t_, ptr %15, i32 0, i32 1
  %17 = load i32, ptr %16, align 4, !tbaa !44
  %18 = mul nsw i32 2, %17
  %19 = load i32, ptr %5, align 4, !tbaa !10
  %20 = add nsw i32 %19, 1
  %21 = call i32 @Abc_MaxInt(i32 noundef %18, i32 noundef %20)
  call void @Vec_WecGrow(ptr noundef %14, i32 noundef %21)
  %22 = load i32, ptr %5, align 4, !tbaa !10
  %23 = add nsw i32 %22, 1
  %24 = load ptr, ptr %4, align 8, !tbaa !42
  %25 = getelementptr inbounds nuw %struct.Vec_Wec_t_, ptr %24, i32 0, i32 1
  store i32 %23, ptr %25, align 4, !tbaa !44
  br label %26

26:                                               ; preds = %13, %3
  %27 = load ptr, ptr %4, align 8, !tbaa !42
  %28 = load i32, ptr %5, align 4, !tbaa !10
  %29 = call ptr @Vec_WecEntry(ptr noundef %27, i32 noundef %28)
  %30 = load i32, ptr %6, align 4, !tbaa !10
  call void @Vec_IntPush(ptr noundef %29, i32 noundef %30)
  ret void
}