; Function Attrs: inlinehint mustprogress nounwind willreturn uwtable
define internal fastcc void @Vec_WecPush(ptr noundef captures(none) %0, i32 noundef %1, i32 noundef range(i32 -1073741824, 1073741824) %2) unnamed_addr #4 {
  %4 = getelementptr inbounds nuw i8, ptr %0, i64 4
  %5 = load i32, ptr %4, align 4, !tbaa !42
  %.not = icmp sgt i32 %5, %1
  br i1 %.not, label %28, label %6

6:                                                ; preds = %3
  %7 = add nsw i32 %1, 1
  %8 = shl nsw i32 %5, 1
  %9 = tail call range(i32 -2147483647, -2147483648) i32 @llvm.smax.i32(i32 %8, i32 range(i32 -2147483647, -2147483648) %7)
  %10 = load i32, ptr %0, align 8, !tbaa !39
  %.not.i = icmp slt i32 %10, %9
  br i1 %.not.i, label %11, label %Vec_WecGrow.exit

11:                                               ; preds = %6
  %12 = getelementptr inbounds nuw i8, ptr %0, i64 8
  %13 = load ptr, ptr %12, align 8, !tbaa !41
  %.not13.i = icmp eq ptr %13, null
  %14 = sext i32 %9 to i64
  %15 = shl nsw i64 %14, 4
  br i1 %.not13.i, label %18, label %16

16:                                               ; preds = %11
  %17 = tail call ptr @realloc(ptr noundef nonnull %13, i64 noundef %15) #18
  %.pre.i = load i32, ptr %0, align 8, !tbaa !39
  br label %20

18:                                               ; preds = %11
  %19 = tail call noalias ptr @malloc(i64 noundef %15) #16
  br label %20

20:                                               ; preds = %18, %16
  %21 = phi i32 [ %.pre.i, %16 ], [ %10, %18 ]
  %22 = phi ptr [ %17, %16 ], [ %19, %18 ]
  store ptr %22, ptr %12, align 8, !tbaa !41
  %23 = sext i32 %21 to i64
  %24 = getelementptr inbounds %struct.Vec_Int_t_, ptr %22, i64 %23
  %25 = sub nsw i32 %9, %21
  %26 = sext i32 %25 to i64
  %27 = shl nsw i64 %26, 4
  tail call void @llvm.memset.p0.i64(ptr align 8 %24, i8 0, i64 %27, i1 false)
  store i32 %9, ptr %0, align 8, !tbaa !39
  br label %Vec_WecGrow.exit

Vec_WecGrow.exit:                                 ; preds = %6, %20
  store i32 %7, ptr %4, align 4, !tbaa !42
  br label %28

28:                                               ; preds = %Vec_WecGrow.exit, %3
  %29 = getelementptr i8, ptr %0, i64 8
  %.val = load ptr, ptr %29, align 8, !tbaa !41
  %30 = sext i32 %1 to i64
  %31 = getelementptr inbounds %struct.Vec_Int_t_, ptr %.val, i64 %30
  %32 = getelementptr inbounds nuw i8, ptr %31, i64 4
  %33 = load i32, ptr %32, align 4, !tbaa !3
  %34 = load i32, ptr %31, align 8, !tbaa !10
  %35 = icmp eq i32 %33, %34
  br i1 %35, label %36, label %.Vec_IntGrow.exit10_crit_edge.i

.Vec_IntGrow.exit10_crit_edge.i:                  ; preds = %28
  %.phi.trans.insert.i = getelementptr inbounds nuw i8, ptr %31, i64 8
  %.pre.i10 = load ptr, ptr %.phi.trans.insert.i, align 8, !tbaa !11
  br label %Vec_IntPush.exit

36:                                               ; preds = %28
  %37 = icmp slt i32 %33, 16
  br i1 %37, label %38, label %46

38:                                               ; preds = %36
  %39 = getelementptr inbounds nuw i8, ptr %31, i64 8
  %40 = load ptr, ptr %39, align 8, !tbaa !11
  %.not9.i.i = icmp eq ptr %40, null
  br i1 %.not9.i.i, label %43, label %41

41:                                               ; preds = %38
  %42 = tail call dereferenceable_or_null(64) ptr @realloc(ptr noundef nonnull %40, i64 noundef 64) #18
  br label %Vec_IntGrow.exit.i

43:                                               ; preds = %38
  %44 = tail call noalias dereferenceable_or_null(64) ptr @malloc(i64 noundef 64) #16
  br label %Vec_IntGrow.exit.i

Vec_IntGrow.exit.i:                               ; preds = %43, %41
  %45 = phi ptr [ %42, %41 ], [ %44, %43 ]
  store ptr %45, ptr %39, align 8, !tbaa !11
  store i32 16, ptr %31, align 8, !tbaa !10
  br label %Vec_IntPush.exit

46:                                               ; preds = %36
  %47 = shl nuw nsw i32 %33, 1
  %48 = getelementptr inbounds nuw i8, ptr %31, i64 8
  %49 = load ptr, ptr %48, align 8, !tbaa !11
  %.not9.i9.i = icmp eq ptr %49, null
  %50 = zext nneg i32 %47 to i64
  %51 = shl nuw nsw i64 %50, 2
  br i1 %.not9.i9.i, label %54, label %52

52:                                               ; preds = %46
  %53 = tail call ptr @realloc(ptr noundef nonnull %49, i64 noundef %51) #18
  br label %56

54:                                               ; preds = %46
  %55 = tail call noalias ptr @malloc(i64 noundef %51) #16
  br label %56

56:                                               ; preds = %54, %52
  %57 = phi ptr [ %53, %52 ], [ %55, %54 ]
  store ptr %57, ptr %48, align 8, !tbaa !11
  store i32 %47, ptr %31, align 8, !tbaa !10
  br label %Vec_IntPush.exit

Vec_IntPush.exit:                                 ; preds = %.Vec_IntGrow.exit10_crit_edge.i, %Vec_IntGrow.exit.i, %56
  %58 = phi ptr [ %.pre.i10, %.Vec_IntGrow.exit10_crit_edge.i ], [ %57, %56 ], [ %45, %Vec_IntGrow.exit.i ]
  %59 = load i32, ptr %32, align 4, !tbaa !3
  %60 = add nsw i32 %59, 1
  store i32 %60, ptr %32, align 4, !tbaa !3
  %61 = sext i32 %59 to i64
  %62 = getelementptr inbounds i32, ptr %58, i64 %61
  store i32 %2, ptr %62, align 4, !tbaa !32
  ret void
}